target datalayout = "e-m:e-p270:32:32-p271:32:32-p272:64:64-i64:64-i128:128-f80:128-n8:16:32:64-S128"
target triple = "x86_64-pc-linux-gnu"

%"class.std::__cxx11::basic_string" = type { %"struct.std::__cxx11::basic_string<char>::_Alloc_hider", i64, %union.anon }
%"struct.std::__cxx11::basic_string<char>::_Alloc_hider" = type { ptr }
%union.anon = type { i64, [8 x i8] }

@.str.4 = private unnamed_addr constant [3 x i8] c"wb\00", align 1
@.str.5 = private unnamed_addr constant [41 x i8] c"WriteFile(%s): Unable to create file. %s\00", align 1
@.str.6 = private unnamed_addr constant [47 x i8] c"WriteFile(%s): Unable to write to the file. %s\00", align 1
@.str.7 = private unnamed_addr constant [44 x i8] c"WriteFile(%s): Unable to close the file. %s\00", align 1

; Function Attrs: mustprogress nounwind uwtable
define available_externally noundef ptr @_ZNKSt7__cxx1112basic_stringIcSt11char_traitsIcESaIcEE7_M_dataEv(ptr noundef nonnull align 8 dereferenceable(32) %0) #2 align 2 {
  %2 = alloca ptr, align 8
  store ptr %0, ptr %2, align 8, !tbaa !9
  %3 = load ptr, ptr %2, align 8
  %4 = getelementptr inbounds nuw %"class.std::__cxx11::basic_string", ptr %3, i32 0, i32 0
  %5 = getelementptr inbounds nuw %"struct.std::__cxx11::basic_string<char>::_Alloc_hider", ptr %4, i32 0, i32 0
  %6 = load ptr, ptr %5, align 8, !tbaa !57
  ret ptr %6
}

; Function Attrs: mustprogress nounwind uwtable
define available_externally noundef i64 @_ZNKSt7__cxx1112basic_stringIcSt11char_traitsIcESaIcEE6lengthEv(ptr noundef nonnull align 8 dereferenceable(32) %0) #2 align 2 {
  %2 = alloca ptr, align 8
  store ptr %0, ptr %2, align 8, !tbaa !9
  %3 = load ptr, ptr %2, align 8
  %4 = getelementptr inbounds nuw %"class.std::__cxx11::basic_string", ptr %3, i32 0, i32 1
  %5 = load i64, ptr %4, align 8, !tbaa !43
  ret i64 %5
}

; Function Attrs: mustprogress nounwind uwtable
define available_externally noundef ptr @_ZNKSt7__cxx1112basic_stringIcSt11char_traitsIcESaIcEE4dataEv(ptr noundef nonnull align 8 dereferenceable(32) %0) #2 align 2 {
  %2 = alloca ptr, align 8
  store ptr %0, ptr %2, align 8, !tbaa !9
  %3 = load ptr, ptr %2, align 8
  %4 = call noundef ptr @_ZNKSt7__cxx1112basic_stringIcSt11char_traitsIcESaIcEE7_M_dataEv(ptr noundef nonnull align 8 dereferenceable(32) %3)
  ret ptr %4
}

; Function Attrs: mustprogress nounwind uwtable
define available_externally noundef ptr @_ZNKSt7__cxx1112basic_stringIcSt11char_traitsIcESaIcEE5c_strEv(ptr noundef nonnull align 8 dereferenceable(32) %0) #2 align 2 {
  %2 = alloca ptr, align 8
  store ptr %0, ptr %2, align 8, !tbaa !9
  %3 = load ptr, ptr %2, align 8
  %4 = call noundef ptr @_ZNKSt7__cxx1112basic_stringIcSt11char_traitsIcESaIcEE7_M_dataEv(ptr noundef nonnull align 8 dereferenceable(32) %3)
  ret ptr %4
}

; Function Attrs: mustprogress uwtable
define dso_local noundef zeroext i1 @_ZN17RealDiskInterface9WriteFileERKNSt7__cxx1112basic_stringIcSt11char_traitsIcESaIcEEES7_(ptr noundef nonnull align 8 dereferenceable(8) %0, ptr noundef nonnull align 8 dereferenceable(32) %1, ptr noundef nonnull align 8 dereferenceable(32) %2) unnamed_addr #0 align 2 {
  %4 = alloca i1, align 1
  %5 = alloca ptr, align 8
  %6 = alloca ptr, align 8
  %7 = alloca ptr, align 8
  %8 = alloca ptr, align 8
  %9 = alloca i32, align 4
  store ptr %0, ptr %5, align 8, !tbaa !21
  store ptr %1, ptr %6, align 8, !tbaa !9
  store ptr %2, ptr %7, align 8, !tbaa !9
  call void @llvm.lifetime.start.p0(i64 8, ptr %8) #5
  %10 = load ptr, ptr %6, align 8, !tbaa !9
  %11 = call noundef ptr @_ZNKSt7__cxx1112basic_stringIcSt11char_traitsIcESaIcEE5c_strEv(ptr noundef nonnull align 8 dereferenceable(32) %10) #5
  %12 = call noalias ptr @fopen(ptr noundef %11, ptr noundef @.str.4)
  store ptr %12, ptr %8, align 8, !tbaa !41
  %13 = load ptr, ptr %8, align 8, !tbaa !41
  %14 = icmp eq ptr %13, null
  br i1 %14, label %15, label %21

15:                                               ; preds = %3
  %16 = load ptr, ptr %6, align 8, !tbaa !9
  %17 = call noundef ptr @_ZNKSt7__cxx1112basic_stringIcSt11char_traitsIcESaIcEE5c_strEv(ptr noundef nonnull align 8 dereferenceable(32) %16) #5
  %18 = call ptr @__errno_location() #17
  %19 = load i32, ptr %18, align 4, !tbaa !28
  %20 = call ptr @strerror(i32 noundef %19) #5
  call void (ptr, ...) @_Z5ErrorPKcz(ptr noundef @.str.5, ptr noundef %17, ptr noundef %20)
  store i1 false, ptr %4, align 1
  store i32 1, ptr %9, align 4
  br label %50

21:                                               ; preds = %3
  %22 = load ptr, ptr %7, align 8, !tbaa !9
  %23 = call noundef ptr @_ZNKSt7__cxx1112basic_stringIcSt11char_traitsIcESaIcEE4dataEv(ptr noundef nonnull align 8 dereferenceable(32) %22) #5
  %24 = load ptr, ptr %7, align 8, !tbaa !9
  %25 = call noundef i64 @_ZNKSt7__cxx1112basic_stringIcSt11char_traitsIcESaIcEE6lengthEv(ptr noundef nonnull align 8 dereferenceable(32) %24) #5
  %26 = load ptr, ptr %8, align 8, !tbaa !41
  %27 = call i64 @fwrite(ptr noundef %23, i64 noundef 1, i64 noundef %25, ptr noundef %26)
  %28 = load ptr, ptr %7, align 8, !tbaa !9
  %29 = call noundef i64 @_ZNKSt7__cxx1112basic_stringIcSt11char_traitsIcESaIcEE6lengthEv(ptr noundef nonnull align 8 dereferenceable(32) %28) #5
  %30 = icmp ult i64 %27, %29
  br i1 %30, label %31, label %39

31:                                               ; preds = %21
  %32 = load ptr, ptr %6, align 8, !tbaa !9
  %33 = call noundef ptr @_ZNKSt7__cxx1112basic_stringIcSt11char_traitsIcESaIcEE5c_strEv(ptr noundef nonnull align 8 dereferenceable(32) %32) #5
  %34 = call ptr @__errno_location() #17
  %35 = load i32, ptr %34, align 4, !tbaa !28
  %36 = call ptr @strerror(i32 noundef %35) #5
  call void (ptr, ...) @_Z5ErrorPKcz(ptr noundef @.str.6, ptr noundef %33, ptr noundef %36)
  %37 = load ptr, ptr %8, align 8, !tbaa !41
  %38 = call i32 @fclose(ptr noundef %37)
  store i1 false, ptr %4, align 1
  store i32 1, ptr %9, align 4
  br label %50

39:                                               ; preds = %21
  %40 = load ptr, ptr %8, align 8, !tbaa !41
  %41 = call i32 @fclose(ptr noundef %40)
  %42 = icmp eq i32 %41, -1
  br i1 %42, label %43, label %49

43:                                               ; preds = %39
  %44 = load ptr, ptr %6, align 8, !tbaa !9
  %45 = call noundef ptr @_ZNKSt7__cxx1112basic_stringIcSt11char_traitsIcESaIcEE5c_strEv(ptr noundef nonnull align 8 dereferenceable(32) %44) #5
  %46 = call ptr @__errno_location() #17
  %47 = load i32, ptr %46, align 4, !tbaa !28
  %48 = call ptr @strerror(i32 noundef %47) #5
  call void (ptr, ...) @_Z5ErrorPKcz(ptr noundef @.str.7, ptr noundef %45, ptr noundef %48)
  store i1 false, ptr %4, align 1
  store i32 1, ptr %9, align 4
  br label %50

49:                                               ; preds = %39
  store i1 true, ptr %4, align 1
  store i32 1, ptr %9, align 4
  br label %50

50:                                               ; preds = %49, %43, %31, %15
  call void @llvm.lifetime.end.p0(i64 8, ptr %8) #5
  %51 = load i1, ptr %4, align 1
  ret i1 %51
}