; Function Attrs: mustprogress uwtable
define dso_local noundef zeroext i1 @_ZN17RealDiskInterface9WriteFileERKNSt7__cxx1112basic_stringIcSt11char_traitsIcESaIcEEES7_(ptr nonnull readnone align 8 captures(none) %0, ptr noundef nonnull readonly align 8 captures(none) dereferenceable(32) %1, ptr noundef nonnull readonly align 8 captures(none) dereferenceable(32) %2) unnamed_addr #0 align 2 {
  %4 = load ptr, ptr %1, align 8, !tbaa !24
  %5 = tail call noalias ptr @fopen(ptr noundef %4, ptr noundef nonnull @.str.4)
  %6 = icmp eq ptr %5, null
  br i1 %6, label %7, label %12

7:                                                ; preds = %3
  %8 = load ptr, ptr %1, align 8, !tbaa !24
  %9 = tail call ptr @__errno_location() #19
  %10 = load i32, ptr %9, align 4, !tbaa !32
  %11 = tail call ptr @strerror(i32 noundef %10) #17
  tail call void (ptr, ...) @_Z5ErrorPKcz(ptr noundef nonnull @.str.5, ptr noundef %8, ptr noundef %11)
  br label %33

12:                                               ; preds = %3
  %13 = load ptr, ptr %2, align 8, !tbaa !24
  %14 = getelementptr inbounds nuw i8, ptr %2, i64 8
  %15 = load i64, ptr %14, align 8, !tbaa !13
  %16 = tail call i64 @fwrite(ptr noundef %13, i64 noundef 1, i64 noundef %15, ptr noundef nonnull %5)
  %17 = load i64, ptr %14, align 8, !tbaa !13
  %18 = icmp ult i64 %16, %17
  br i1 %18, label %19, label %25

19:                                               ; preds = %12
  %20 = load ptr, ptr %1, align 8, !tbaa !24
  %21 = tail call ptr @__errno_location() #19
  %22 = load i32, ptr %21, align 4, !tbaa !32
  %23 = tail call ptr @strerror(i32 noundef %22) #17
  tail call void (ptr, ...) @_Z5ErrorPKcz(ptr noundef nonnull @.str.6, ptr noundef %20, ptr noundef %23)
  %24 = tail call i32 @fclose(ptr noundef nonnull %5)
  br label %33

25:                                               ; preds = %12
  %26 = tail call i32 @fclose(ptr noundef nonnull %5)
  %27 = icmp eq i32 %26, -1
  br i1 %27, label %28, label %33

28:                                               ; preds = %25
  %29 = load ptr, ptr %1, align 8, !tbaa !24
  %30 = tail call ptr @__errno_location() #19
  %31 = load i32, ptr %30, align 4, !tbaa !32
  %32 = tail call ptr @strerror(i32 noundef %31) #17
  tail call void (ptr, ...) @_Z5ErrorPKcz(ptr noundef nonnull @.str.7, ptr noundef %29, ptr noundef %32)
  br label %33

33:                                               ; preds = %25, %28, %19, %7
  %.0 = phi i1 [ false, %7 ], [ false, %19 ], [ false, %28 ], [ true, %25 ]
  ret i1 %.0
}